; Function Attrs: null_pointer_is_valid sspstrong uwtable
define internal fastcc i32 @fSignedTag(ptr noundef nonnull %0, ptr noundef %1, ptr noundef %2, i32 noundef %3, ptr noundef %4) unnamed_addr #0 {
  %6 = alloca i8, align 1
  %7 = alloca i8, align 1
  %8 = alloca i32, align 4
  call void @llvm.lifetime.start.p0(i64 1, ptr nonnull %6) #6
  call void @llvm.lifetime.start.p0(i64 1, ptr nonnull %7) #6
  call void @llvm.lifetime.start.p0(i64 4, ptr nonnull %8) #6
  %9 = call fastcc range(i32 1, 8) i32 @fTagHeaderTree(ptr noundef nonnull %0, ptr noundef %1, ptr noundef null, i32 noundef %3, ptr noundef nonnull %6, ptr noundef nonnull %7, ptr noundef nonnull %8)
  %10 = add i32 %9, %3
  %11 = load i32, ptr %8, align 4
  %12 = add i32 %11, -1
  %or.cond.i = icmp ult i32 %12, 7
  br i1 %or.cond.i, label %13, label %fSigned64.exit.thread24

13:                                               ; preds = %5
  %14 = tail call zeroext i8 @tvb_get_uint8(ptr noundef nonnull %0, i32 noundef %10)
  %15 = zext i8 %14 to i64
  %16 = or disjoint i64 %15, -256
  %.not21.i = icmp slt i8 %14, 0
  %.018.i = select i1 %.not21.i, i64 %16, i64 %15
  %17 = icmp samesign ugt i32 %11, 1
  br i1 %17, label %.lr.ph.i, label %fSigned64.exit.thread

.lr.ph.i:                                         ; preds = %13, %.lr.ph.i
  %.023.i = phi i32 [ %23, %.lr.ph.i ], [ 1, %13 ]
  %.122.i = phi i64 [ %22, %.lr.ph.i ], [ %.018.i, %13 ]
  %18 = add i32 %.023.i, %10
  %19 = tail call zeroext i8 @tvb_get_uint8(ptr noundef nonnull %0, i32 noundef %18)
  %20 = shl i64 %.122.i, 8
  %21 = zext i8 %19 to i64
  %22 = or disjoint i64 %20, %21
  %23 = add nuw nsw i32 %.023.i, 1
  %exitcond.not.i = icmp eq i32 %23, %11
  br i1 %exitcond.not.i, label %fSigned64.exit.thread, label %.lr.ph.i, !llvm.loop !30

fSigned64.exit.thread:                            ; preds = %.lr.ph.i, %13
  %.02123 = phi i64 [ %.018.i, %13 ], [ %22, %.lr.ph.i ]
  %24 = add nuw nsw i32 %11, %9
  %25 = load i32, ptr @ett_bacapp_tag, align 4
  %26 = tail call ptr (ptr, ptr, i32, i32, i32, ptr, ptr, ...) @proto_tree_add_subtree_format(ptr noundef %2, ptr noundef nonnull %0, i32 noundef %3, i32 noundef %24, i32 noundef %25, ptr noundef null, ptr noundef nonnull @.str.2611, ptr noundef %4, i64 noundef %.02123)
  br label %30

fSigned64.exit.thread24:                          ; preds = %5
  %27 = add i32 %11, %9
  %28 = load i32, ptr @ett_bacapp_tag, align 4
  %29 = tail call ptr (ptr, ptr, i32, i32, i32, ptr, ptr, ...) @proto_tree_add_subtree_format(ptr noundef %2, ptr noundef nonnull %0, i32 noundef %3, i32 noundef %27, i32 noundef %28, ptr noundef null, ptr noundef nonnull @.str.2612, ptr noundef %4, i32 noundef %11)
  br label %30

30:                                               ; preds = %fSigned64.exit.thread24, %fSigned64.exit.thread
  %.0 = phi ptr [ %26, %fSigned64.exit.thread ], [ %29, %fSigned64.exit.thread24 ]
  %31 = call fastcc i32 @fTagHeaderTree(ptr noundef %0, ptr noundef %1, ptr noundef %.0, i32 noundef %3, ptr noundef nonnull %6, ptr noundef nonnull %7, ptr noundef nonnull %8)
  %32 = load i32, ptr %8, align 4
  %33 = add i32 %32, %10
  call void @llvm.lifetime.end.p0(i64 4, ptr nonnull %8) #6
  call void @llvm.lifetime.end.p0(i64 1, ptr nonnull %7) #6
  call void @llvm.lifetime.end.p0(i64 1, ptr nonnull %6) #6
  ret i32 %33
}